; Function Attrs: mustprogress uwtable
define void @_ZN25DecoratorParamsTreeWidget4loadEv(ptr noundef nonnull align 8 dereferenceable(120) %0) local_unnamed_addr #9 align 2 personality ptr @__gxx_personality_v0 {
  %2 = alloca %class.QString, align 8
  %3 = getelementptr inbounds i8, ptr %0, i64 56
  %4 = load ptr, ptr %3, align 8
  %5 = tail call ptr @_ZN22RichParameterListFrame5beginEv(ptr noundef nonnull align 8 dereferenceable(200) %4)
  %6 = tail call ptr @_ZN22RichParameterListFrame3endEv(ptr noundef nonnull align 8 dereferenceable(200) %4)
  %.not9 = icmp eq ptr %5, %6
  br i1 %.not9, label %._crit_edge, label %.lr.ph

.lr.ph:                                           ; preds = %1
  %7 = getelementptr inbounds i8, ptr %0, i64 64
  br label %8

8:                                                ; preds = %.lr.ph, %_ZN7QStringD2Ev.exit
  %.sroa.06.010 = phi ptr [ %5, %.lr.ph ], [ %29, %_ZN7QStringD2Ev.exit ]
  %9 = getelementptr inbounds i8, ptr %.sroa.06.010, i64 32
  %10 = load ptr, ptr %9, align 8
  store ptr %10, ptr %2, align 8
  %11 = load atomic i32, ptr %10 monotonic, align 4
  %12 = add i32 %11, -1
  %or.cond.not.i.i = icmp ult i32 %12, -2
  br i1 %or.cond.not.i.i, label %13, label %_ZN7QStringC2ERKS_.exit

13:                                               ; preds = %8
  %14 = atomicrmw add ptr %10, i32 1 seq_cst, align 4
  br label %_ZN7QStringC2ERKS_.exit

_ZN7QStringC2ERKS_.exit:                          ; preds = %8, %13
  %15 = getelementptr inbounds i8, ptr %.sroa.06.010, i64 40
  %16 = load ptr, ptr %15, align 8
  %17 = invoke noundef nonnull align 8 dereferenceable(56) ptr @_ZN17RichParameterList18getParameterByNameERK7QString(ptr noundef nonnull align 8 dereferenceable(24) %7, ptr noundef nonnull align 8 dereferenceable(8) %2)
          to label %18 unwind label %30

18:                                               ; preds = %_ZN7QStringC2ERKS_.exit
  %19 = invoke noundef nonnull align 8 dereferenceable(8) ptr @_ZNK13RichParameter5valueEv(ptr noundef nonnull align 8 dereferenceable(56) %17)
          to label %20 unwind label %30

20:                                               ; preds = %18
  %21 = load ptr, ptr %16, align 8
  %22 = getelementptr inbounds i8, ptr %21, i64 424
  %23 = load ptr, ptr %22, align 8
  invoke void %23(ptr noundef nonnull align 8 dereferenceable(99) %16, ptr noundef nonnull align 8 dereferenceable(8) %19)
          to label %24 unwind label %30

24:                                               ; preds = %20
  %25 = load ptr, ptr %2, align 8
  %26 = load atomic i32, ptr %25 monotonic, align 4
  switch i32 %26, label %_ZN9QtPrivate8RefCount5derefEv.exit.i [
    i32 0, label %_ZN9QtPrivate8RefCount5derefEv.exit.thread2.i
    i32 -1, label %_ZN7QStringD2Ev.exit
  ]

_ZN9QtPrivate8RefCount5derefEv.exit.i:            ; preds = %24
  %27 = atomicrmw sub ptr %25, i32 1 seq_cst, align 4
  %.not.i = icmp eq i32 %27, 1
  br i1 %.not.i, label %_ZN9QtPrivate8RefCount5derefEv.exit._ZN9QtPrivate8RefCount5derefEv.exit.thread2_crit_edge.i, label %_ZN7QStringD2Ev.exit

_ZN9QtPrivate8RefCount5derefEv.exit._ZN9QtPrivate8RefCount5derefEv.exit.thread2_crit_edge.i: ; preds = %_ZN9QtPrivate8RefCount5derefEv.exit.i
  %.pre.i = load ptr, ptr %2, align 8
  br label %_ZN9QtPrivate8RefCount5derefEv.exit.thread2.i

_ZN9QtPrivate8RefCount5derefEv.exit.thread2.i:    ; preds = %_ZN9QtPrivate8RefCount5derefEv.exit._ZN9QtPrivate8RefCount5derefEv.exit.thread2_crit_edge.i, %24
  %28 = phi ptr [ %.pre.i, %_ZN9QtPrivate8RefCount5derefEv.exit._ZN9QtPrivate8RefCount5derefEv.exit.thread2_crit_edge.i ], [ %25, %24 ]
  call void @_ZN10QArrayData10deallocateEPS_mm(ptr noundef %28, i64 noundef 2, i64 noundef 8) #22
  br label %_ZN7QStringD2Ev.exit

_ZN7QStringD2Ev.exit:                             ; preds = %24, %_ZN9QtPrivate8RefCount5derefEv.exit.i, %_ZN9QtPrivate8RefCount5derefEv.exit.thread2.i
  %29 = call noundef ptr @_ZSt18_Rb_tree_incrementPSt18_Rb_tree_node_base(ptr noundef nonnull %.sroa.06.010) #25
  %.not = icmp eq ptr %29, %6
  br i1 %.not, label %._crit_edge, label %8

30:                                               ; preds = %20, %18, %_ZN7QStringC2ERKS_.exit
  %31 = landingpad { ptr, i32 }
          cleanup
  call void @_ZN7QStringD2Ev(ptr noundef nonnull align 8 dereferenceable(8) %2) #22
  resume { ptr, i32 } %31

._crit_edge:                                      ; preds = %_ZN7QStringD2Ev.exit, %1
  call void @_ZN25DecoratorParamsTreeWidget5applyEv(ptr noundef nonnull align 8 dereferenceable(120) %0)
  ret void
}